target datalayout = "e-m:e-p270:32:32-p271:32:32-p272:64:64-i64:64-i128:128-f80:128-n8:16:32:64-S128"
target triple = "x86_64-unknown-linux-gnu"

%"class.icu_75::MaybeStackArray" = type <{ ptr, i32, i8, [40 x i8], [3 x i8] }>
%"class.icu_75::Formattable" = type { %"class.icu_75::UObject", %union.anon, ptr, ptr, i32, %"class.icu_75::UnicodeString" }
%"class.icu_75::UObject" = type { ptr }
%union.anon = type { %struct.anon }
%struct.anon = type { ptr, i32 }
%"class.icu_75::UnicodeString" = type { %"class.icu_75::Replaceable", %"union.icu_75::UnicodeString::StackBufferOrFields" }
%"class.icu_75::Replaceable" = type { %"class.icu_75::UObject" }
%"union.icu_75::UnicodeString::StackBufferOrFields" = type { %struct.anon.1, [32 x i8] }
%struct.anon.1 = type { i16, i32, i32, ptr }
%"class.icu_75::CharString" = type { %"class.icu_75::MaybeStackArray", i32, [4 x i8] }

@_ZN6icu_7515MaybeStackArrayIcLi40EED1Ev = weak_odr unnamed_addr alias void (ptr), ptr @_ZN6icu_7515MaybeStackArrayIcLi40EED2Ev
@_ZN6icu_7511FormattableD1Ev = unnamed_addr alias void (ptr), ptr @_ZN6icu_7511FormattableD2Ev

; Function Attrs: mustprogress nounwind uwtable
define linkonce_odr void @_ZN6icu_7510CharStringD2Ev(ptr noundef nonnull align 8 dereferenceable(60) %this) unnamed_addr #0 comdat align 2 {
entry:
  %this.addr = alloca ptr, align 8
  store ptr %this, ptr %this.addr, align 8
  %this1 = load ptr, ptr %this.addr, align 8
  %buffer = getelementptr inbounds %"class.icu_75::CharString", ptr %this1, i32 0, i32 0
  call void @_ZN6icu_7515MaybeStackArrayIcLi40EED1Ev(ptr noundef nonnull align 8 dereferenceable(53) %buffer) #10
  ret void
}

; Function Attrs: mustprogress nounwind uwtable
define void @_ZN6icu_7511Formattable7disposeEv(ptr noundef nonnull align 8 dereferenceable(112) %this) #0 align 2 {
entry:
  %this.addr = alloca ptr, align 8
  store ptr %this, ptr %this.addr, align 8
  %this1 = load ptr, ptr %this.addr, align 8
  %fType = getelementptr inbounds %"class.icu_75::Formattable", ptr %this1, i32 0, i32 4
  %0 = load i32, ptr %fType, align 8
  switch i32 %0, label %sw.default [
    i32 3, label %sw.bb
    i32 4, label %sw.bb2
    i32 6, label %sw.bb9
  ]

sw.bb:                                            ; preds = %entry
  %fValue = getelementptr inbounds %"class.icu_75::Formattable", ptr %this1, i32 0, i32 1
  %1 = load ptr, ptr %fValue, align 8
  %isnull = icmp eq ptr %1, null
  br i1 %isnull, label %delete.end, label %delete.notnull

delete.notnull:                                   ; preds = %sw.bb
  %vtable = load ptr, ptr %1, align 8
  %vfn = getelementptr inbounds ptr, ptr %vtable, i64 1
  %2 = load ptr, ptr %vfn, align 8
  call void %2(ptr noundef nonnull align 8 dereferenceable(64) %1) #10
  br label %delete.end

delete.end:                                       ; preds = %delete.notnull, %sw.bb
  br label %sw.epilog

sw.bb2:                                           ; preds = %entry
  %fValue3 = getelementptr inbounds %"class.icu_75::Formattable", ptr %this1, i32 0, i32 1
  %fArray = getelementptr inbounds %struct.anon, ptr %fValue3, i32 0, i32 0
  %3 = load ptr, ptr %fArray, align 8
  %isnull4 = icmp eq ptr %3, null
  br i1 %isnull4, label %delete.end8, label %delete.notnull5

delete.notnull5:                                  ; preds = %sw.bb2
  %4 = getelementptr inbounds i8, ptr %3, i64 -8
  %5 = load i64, ptr %4, align 8
  %delete.end6 = getelementptr inbounds %"class.icu_75::Formattable", ptr %3, i64 %5
  %arraydestroy.isempty = icmp eq ptr %3, %delete.end6
  br i1 %arraydestroy.isempty, label %arraydestroy.done7, label %arraydestroy.body

arraydestroy.body:                                ; preds = %arraydestroy.body, %delete.notnull5
  %arraydestroy.elementPast = phi ptr [ %delete.end6, %delete.notnull5 ], [ %arraydestroy.element, %arraydestroy.body ]
  %arraydestroy.element = getelementptr inbounds %"class.icu_75::Formattable", ptr %arraydestroy.elementPast, i64 -1
  call void @_ZN6icu_7511FormattableD1Ev(ptr noundef nonnull align 8 dereferenceable(112) %arraydestroy.element) #10
  %arraydestroy.done = icmp eq ptr %arraydestroy.element, %3
  br i1 %arraydestroy.done, label %arraydestroy.done7, label %arraydestroy.body

arraydestroy.done7:                               ; preds = %arraydestroy.body, %delete.notnull5
  call void @_ZN6icu_757UMemorydaEPv(ptr noundef %4) #10
  br label %delete.end8

delete.end8:                                      ; preds = %arraydestroy.done7, %sw.bb2
  br label %sw.epilog

sw.bb9:                                           ; preds = %entry
  %fValue10 = getelementptr inbounds %"class.icu_75::Formattable", ptr %this1, i32 0, i32 1
  %6 = load ptr, ptr %fValue10, align 8
  %isnull11 = icmp eq ptr %6, null
  br i1 %isnull11, label %delete.end15, label %delete.notnull12

delete.notnull12:                                 ; preds = %sw.bb9
  %vtable13 = load ptr, ptr %6, align 8
  %vfn14 = getelementptr inbounds ptr, ptr %vtable13, i64 1
  %7 = load ptr, ptr %vfn14, align 8
  call void %7(ptr noundef nonnull align 8 dereferenceable(8) %6) #10
  br label %delete.end15

delete.end15:                                     ; preds = %delete.notnull12, %sw.bb9
  br label %sw.epilog

sw.default:                                       ; preds = %entry
  br label %sw.epilog

sw.epilog:                                        ; preds = %sw.default, %delete.end15, %delete.end8, %delete.end
  %fType16 = getelementptr inbounds %"class.icu_75::Formattable", ptr %this1, i32 0, i32 4
  store i32 2, ptr %fType16, align 8
  %fValue17 = getelementptr inbounds %"class.icu_75::Formattable", ptr %this1, i32 0, i32 1
  store i64 0, ptr %fValue17, align 8
  %fDecimalStr = getelementptr inbounds %"class.icu_75::Formattable", ptr %this1, i32 0, i32 2
  %8 = load ptr, ptr %fDecimalStr, align 8
  %isnull18 = icmp eq ptr %8, null
  br i1 %isnull18, label %delete.end20, label %delete.notnull19

delete.notnull19:                                 ; preds = %sw.epilog
  call void @_ZN6icu_7510CharStringD2Ev(ptr noundef nonnull align 8 dereferenceable(60) %8) #10
  call void @_ZN6icu_757UMemorydlEPv(ptr noundef %8) #10
  br label %delete.end20

delete.end20:                                     ; preds = %delete.notnull19, %sw.epilog
  %fDecimalStr21 = getelementptr inbounds %"class.icu_75::Formattable", ptr %this1, i32 0, i32 2
  store ptr null, ptr %fDecimalStr21, align 8
  %fDecimalQuantity = getelementptr inbounds %"class.icu_75::Formattable", ptr %this1, i32 0, i32 3
  %9 = load ptr, ptr %fDecimalQuantity, align 8
  %isnull22 = icmp eq ptr %9, null
  br i1 %isnull22, label %delete.end26, label %delete.notnull23

delete.notnull23:                                 ; preds = %delete.end20
  %vtable24 = load ptr, ptr %9, align 8
  %vfn25 = getelementptr inbounds ptr, ptr %vtable24, i64 1
  %10 = load ptr, ptr %vfn25, align 8
  call void %10(ptr noundef nonnull align 8 dereferenceable(66) %9) #10
  br label %delete.end26

delete.end26:                                     ; preds = %delete.notnull23, %delete.end20
  %fDecimalQuantity27 = getelementptr inbounds %"class.icu_75::Formattable", ptr %this1, i32 0, i32 3
  store ptr null, ptr %fDecimalQuantity27, align 8
  ret void
}