; Function Attrs: mustprogress nounwind uwtable
define void @_ZN6icu_7511Formattable7disposeEv(ptr nocapture noundef nonnull align 8 dereferenceable(112) %this) local_unnamed_addr #0 align 2 {
entry:
  %fType = getelementptr inbounds i8, ptr %this, i64 40
  %0 = load i32, ptr %fType, align 8
  switch i32 %0, label %sw.epilog [
    i32 3, label %sw.bb
    i32 4, label %sw.bb2
    i32 6, label %sw.bb9
  ]

sw.bb:                                            ; preds = %entry
  %fValue = getelementptr inbounds i8, ptr %this, i64 8
  %1 = load ptr, ptr %fValue, align 8
  %isnull = icmp eq ptr %1, null
  br i1 %isnull, label %sw.epilog, label %delete.notnull

delete.notnull:                                   ; preds = %sw.bb
  %vtable = load ptr, ptr %1, align 8
  %vfn = getelementptr inbounds i8, ptr %vtable, i64 8
  %2 = load ptr, ptr %vfn, align 8
  tail call void %2(ptr noundef nonnull align 8 dereferenceable(64) %1) #16
  br label %sw.epilog

sw.bb2:                                           ; preds = %entry
  %fValue3 = getelementptr inbounds i8, ptr %this, i64 8
  %3 = load ptr, ptr %fValue3, align 8
  %isnull4 = icmp eq ptr %3, null
  br i1 %isnull4, label %sw.epilog, label %delete.notnull5

delete.notnull5:                                  ; preds = %sw.bb2
  %4 = getelementptr inbounds i8, ptr %3, i64 -8
  %5 = load i64, ptr %4, align 8
  %arraydestroy.isempty = icmp eq i64 %5, 0
  br i1 %arraydestroy.isempty, label %arraydestroy.done7, label %arraydestroy.body.preheader

arraydestroy.body.preheader:                      ; preds = %delete.notnull5
  %delete.end6 = getelementptr inbounds %"class.icu_75::Formattable", ptr %3, i64 %5
  br label %arraydestroy.body

arraydestroy.body:                                ; preds = %arraydestroy.body.preheader, %arraydestroy.body
  %arraydestroy.elementPast = phi ptr [ %arraydestroy.element, %arraydestroy.body ], [ %delete.end6, %arraydestroy.body.preheader ]
  %arraydestroy.element = getelementptr inbounds i8, ptr %arraydestroy.elementPast, i64 -112
  tail call void @_ZN6icu_7511FormattableD1Ev(ptr noundef nonnull align 8 dereferenceable(112) %arraydestroy.element) #16
  %arraydestroy.done = icmp eq ptr %arraydestroy.element, %3
  br i1 %arraydestroy.done, label %arraydestroy.done7, label %arraydestroy.body

arraydestroy.done7:                               ; preds = %arraydestroy.body, %delete.notnull5
  tail call void @_ZN6icu_757UMemorydaEPv(ptr noundef nonnull %4) #16
  br label %sw.epilog

sw.bb9:                                           ; preds = %entry
  %fValue10 = getelementptr inbounds i8, ptr %this, i64 8
  %6 = load ptr, ptr %fValue10, align 8
  %isnull11 = icmp eq ptr %6, null
  br i1 %isnull11, label %sw.epilog, label %delete.notnull12

delete.notnull12:                                 ; preds = %sw.bb9
  %vtable13 = load ptr, ptr %6, align 8
  %vfn14 = getelementptr inbounds i8, ptr %vtable13, i64 8
  %7 = load ptr, ptr %vfn14, align 8
  tail call void %7(ptr noundef nonnull align 8 dereferenceable(8) %6) #16
  br label %sw.epilog

sw.epilog:                                        ; preds = %entry, %sw.bb9, %delete.notnull12, %sw.bb2, %arraydestroy.done7, %sw.bb, %delete.notnull
  store i32 2, ptr %fType, align 8
  %fValue17 = getelementptr inbounds i8, ptr %this, i64 8
  store i64 0, ptr %fValue17, align 8
  %fDecimalStr = getelementptr inbounds i8, ptr %this, i64 24
  %8 = load ptr, ptr %fDecimalStr, align 8
  %isnull18 = icmp eq ptr %8, null
  br i1 %isnull18, label %delete.end20, label %delete.notnull19

delete.notnull19:                                 ; preds = %sw.epilog
  tail call void @_ZN6icu_7515MaybeStackArrayIcLi40EED1Ev(ptr noundef nonnull align 8 dereferenceable(53) %8) #16
  tail call void @_ZN6icu_757UMemorydlEPv(ptr noundef nonnull %8) #16
  br label %delete.end20

delete.end20:                                     ; preds = %delete.notnull19, %sw.epilog
  store ptr null, ptr %fDecimalStr, align 8
  %fDecimalQuantity = getelementptr inbounds i8, ptr %this, i64 32
  %9 = load ptr, ptr %fDecimalQuantity, align 8
  %isnull22 = icmp eq ptr %9, null
  br i1 %isnull22, label %delete.end26, label %delete.notnull23

delete.notnull23:                                 ; preds = %delete.end20
  %vtable24 = load ptr, ptr %9, align 8
  %vfn25 = getelementptr inbounds i8, ptr %vtable24, i64 8
  %10 = load ptr, ptr %vfn25, align 8
  tail call void %10(ptr noundef nonnull align 8 dereferenceable(66) %9) #16
  br label %delete.end26

delete.end26:                                     ; preds = %delete.notnull23, %delete.end20
  store ptr null, ptr %fDecimalQuantity, align 8
  ret void
}